; Function Attrs: mustprogress uwtable
define dso_local void @_ZN34btDeformableMultiBodyDynamicsWorld10setGravityERK9btVector3(ptr noundef nonnull align 8 dereferenceable(1056) %0, ptr noundef nonnull align 4 dereferenceable(16) %1) unnamed_addr #4 align 2 {
  tail call void @_ZN23btDiscreteDynamicsWorld10setGravityERK9btVector3(ptr noundef nonnull align 8 dereferenceable(508) %0, ptr noundef nonnull align 4 dereferenceable(16) %1)
  %3 = getelementptr inbounds nuw i8, ptr %0, i64 848
  %4 = load ptr, ptr %3, align 8, !tbaa !81
  %5 = load ptr, ptr %4, align 8, !tbaa !50
  %6 = getelementptr inbounds nuw i8, ptr %5, i64 136
  %7 = load ptr, ptr %6, align 8
  tail call void %7(ptr noundef nonnull align 8 dereferenceable(609) %4, ptr noundef nonnull align 4 dereferenceable(16) %1)
  ret void
}